target datalayout = "e-m:e-p270:32:32-p271:32:32-p272:64:64-i64:64-i128:128-f80:128-n8:16:32:64-S128"
target triple = "x86_64-pc-linux-gnu"

; Function Attrs: inlinehint mustprogress nounwind uwtable
define internal void @_ZL8rvec_incPfPKf(ptr noundef %0, ptr noundef %1) #8 {
  %3 = alloca ptr, align 8
  %4 = alloca ptr, align 8
  %5 = alloca float, align 4
  %6 = alloca float, align 4
  %7 = alloca float, align 4
  store ptr %0, ptr %3, align 8, !tbaa !68
  store ptr %1, ptr %4, align 8, !tbaa !68
  call void @llvm.lifetime.start.p0(i64 4, ptr %5) #10
  call void @llvm.lifetime.start.p0(i64 4, ptr %6) #10
  call void @llvm.lifetime.start.p0(i64 4, ptr %7) #10
  %8 = load ptr, ptr %3, align 8, !tbaa !68
  %9 = getelementptr inbounds float, ptr %8, i64 0
  %10 = load float, ptr %9, align 4, !tbaa !92
  %11 = load ptr, ptr %4, align 8, !tbaa !68
  %12 = getelementptr inbounds float, ptr %11, i64 0
  %13 = load float, ptr %12, align 4, !tbaa !92
  %14 = fadd float %10, %13
  store float %14, ptr %5, align 4, !tbaa !92
  %15 = load ptr, ptr %3, align 8, !tbaa !68
  %16 = getelementptr inbounds float, ptr %15, i64 1
  %17 = load float, ptr %16, align 4, !tbaa !92
  %18 = load ptr, ptr %4, align 8, !tbaa !68
  %19 = getelementptr inbounds float, ptr %18, i64 1
  %20 = load float, ptr %19, align 4, !tbaa !92
  %21 = fadd float %17, %20
  store float %21, ptr %6, align 4, !tbaa !92
  %22 = load ptr, ptr %3, align 8, !tbaa !68
  %23 = getelementptr inbounds float, ptr %22, i64 2
  %24 = load float, ptr %23, align 4, !tbaa !92
  %25 = load ptr, ptr %4, align 8, !tbaa !68
  %26 = getelementptr inbounds float, ptr %25, i64 2
  %27 = load float, ptr %26, align 4, !tbaa !92
  %28 = fadd float %24, %27
  store float %28, ptr %7, align 4, !tbaa !92
  %29 = load float, ptr %5, align 4, !tbaa !92
  %30 = load ptr, ptr %3, align 8, !tbaa !68
  %31 = getelementptr inbounds float, ptr %30, i64 0
  store float %29, ptr %31, align 4, !tbaa !92
  %32 = load float, ptr %6, align 4, !tbaa !92
  %33 = load ptr, ptr %3, align 8, !tbaa !68
  %34 = getelementptr inbounds float, ptr %33, i64 1
  store float %32, ptr %34, align 4, !tbaa !92
  %35 = load float, ptr %7, align 4, !tbaa !92
  %36 = load ptr, ptr %3, align 8, !tbaa !68
  %37 = getelementptr inbounds float, ptr %36, i64 2
  store float %35, ptr %37, align 4, !tbaa !92
  call void @llvm.lifetime.end.p0(i64 4, ptr %7) #10
  call void @llvm.lifetime.end.p0(i64 4, ptr %6) #10
  call void @llvm.lifetime.end.p0(i64 4, ptr %5) #10
  ret void
}

; Function Attrs: mustprogress uwtable
define void @_Z11translate_xPA3_fiPKf(ptr noundef %0, i32 noundef %1, ptr noundef %2) #0 {
  %4 = alloca ptr, align 8
  %5 = alloca i32, align 4
  %6 = alloca ptr, align 8
  %7 = alloca i32, align 4
  store ptr %0, ptr %4, align 8, !tbaa !68
  store i32 %1, ptr %5, align 4, !tbaa !9
  store ptr %2, ptr %6, align 8, !tbaa !68
  call void @llvm.lifetime.start.p0(i64 4, ptr %7) #10
  store i32 0, ptr %7, align 4, !tbaa !9
  br label %8

8:                                                ; preds = %19, %3
  %9 = load i32, ptr %7, align 4, !tbaa !9
  %10 = load i32, ptr %5, align 4, !tbaa !9
  %11 = icmp slt i32 %9, %10
  br i1 %11, label %12, label %22

12:                                               ; preds = %8
  %13 = load ptr, ptr %4, align 8, !tbaa !68
  %14 = load i32, ptr %7, align 4, !tbaa !9
  %15 = sext i32 %14 to i64
  %16 = getelementptr inbounds [3 x float], ptr %13, i64 %15
  %17 = getelementptr inbounds [3 x float], ptr %16, i64 0, i64 0
  %18 = load ptr, ptr %6, align 8, !tbaa !68
  call void @_ZL8rvec_incPfPKf(ptr noundef %17, ptr noundef %18)
  br label %19

19:                                               ; preds = %12
  %20 = load i32, ptr %7, align 4, !tbaa !9
  %21 = add nsw i32 %20, 1
  store i32 %21, ptr %7, align 4, !tbaa !9
  br label %8, !llvm.loop !111

22:                                               ; preds = %8
  call void @llvm.lifetime.end.p0(i64 4, ptr %7) #10
  ret void
}