; Function Attrs: mustprogress nofree norecurse nosync nounwind memory(argmem: readwrite) uwtable
define void @_Z11translate_xPA3_fiPKf(ptr noundef captures(none) %0, i32 noundef %1, ptr noundef readonly captures(none) %2) local_unnamed_addr #5 {
  %4 = icmp sgt i32 %1, 0
  br i1 %4, label %.lr.ph, label %._crit_edge

.lr.ph:                                           ; preds = %3
  %5 = getelementptr inbounds nuw i8, ptr %2, i64 4
  %6 = getelementptr inbounds nuw i8, ptr %2, i64 8
  %wide.trip.count = zext nneg i32 %1 to i64
  br label %7

7:                                                ; preds = %.lr.ph, %7
  %indvars.iv = phi i64 [ 0, %.lr.ph ], [ %indvars.iv.next, %7 ]
  %8 = getelementptr inbounds nuw [3 x float], ptr %0, i64 %indvars.iv
  %9 = load float, ptr %8, align 4, !tbaa !37
  %10 = load float, ptr %2, align 4, !tbaa !37
  %11 = fadd float %9, %10
  %12 = getelementptr inbounds nuw i8, ptr %8, i64 4
  %13 = load float, ptr %12, align 4, !tbaa !37
  %14 = load float, ptr %5, align 4, !tbaa !37
  %15 = fadd float %13, %14
  %16 = getelementptr inbounds nuw i8, ptr %8, i64 8
  %17 = load float, ptr %16, align 4, !tbaa !37
  %18 = load float, ptr %6, align 4, !tbaa !37
  %19 = fadd float %17, %18
  store float %11, ptr %8, align 4, !tbaa !37
  store float %15, ptr %12, align 4, !tbaa !37
  store float %19, ptr %16, align 4, !tbaa !37
  %indvars.iv.next = add nuw nsw i64 %indvars.iv, 1
  %exitcond.not = icmp eq i64 %indvars.iv.next, %wide.trip.count
  br i1 %exitcond.not, label %._crit_edge, label %7, !llvm.loop !72

._crit_edge:                                      ; preds = %7, %3
  ret void
}